; Function Attrs: mustprogress nofree norecurse nosync nounwind willreturn memory(argmem: read) uwtable
define internal noundef range(i64 0, 1073741825) i64 @_ZN7rocksdb4test12_GLOBAL__N_118SpecialMemTableRep22ApproximateMemoryUsageEv(ptr noundef nonnull readonly align 8 captures(none) dereferenceable(32) %0) unnamed_addr #8 align 2 {
  %2 = getelementptr inbounds nuw i8, ptr %0, i64 28
  %3 = load i32, ptr %2, align 4, !tbaa !586
  %4 = getelementptr inbounds nuw i8, ptr %0, i64 24
  %5 = load i32, ptr %4, align 8, !tbaa !578
  %6 = icmp slt i32 %3, %5
  %7 = select i1 %6, i64 0, i64 1073741824
  ret i64 %7
}